target datalayout = "e-m:e-p270:32:32-p271:32:32-p272:64:64-i64:64-i128:128-f80:128-n8:16:32:64-S128"
target triple = "x86_64-pc-linux-gnu"

%"class.pxrInternal_v0_24__pxrReserved__::SdfPath" = type { %"struct.pxrInternal_v0_24__pxrReserved__::Sdf_PathNodeHandleImpl", %"struct.pxrInternal_v0_24__pxrReserved__::Sdf_PathNodeHandleImpl.0" }
%"struct.pxrInternal_v0_24__pxrReserved__::Sdf_PathNodeHandleImpl" = type { %"struct.pxrInternal_v0_24__pxrReserved__::Sdf_Pool<pxrInternal_v0_24__pxrReserved__::Sdf_PathPrimTag, 24, 8>::Handle" }
%"struct.pxrInternal_v0_24__pxrReserved__::Sdf_Pool<pxrInternal_v0_24__pxrReserved__::Sdf_PathPrimTag, 24, 8>::Handle" = type { i32 }
%"struct.pxrInternal_v0_24__pxrReserved__::Sdf_PathNodeHandleImpl.0" = type { %"struct.pxrInternal_v0_24__pxrReserved__::Sdf_Pool<pxrInternal_v0_24__pxrReserved__::Sdf_PathPropTag, 24, 8>::Handle" }
%"struct.pxrInternal_v0_24__pxrReserved__::Sdf_Pool<pxrInternal_v0_24__pxrReserved__::Sdf_PathPropTag, 24, 8>::Handle" = type { i32 }
%"struct.pxrInternal_v0_24__pxrReserved__::UsdNamespaceEditor::_ProcessedEdit" = type <{ %"class.std::vector", %"class.pxrInternal_v0_24__pxrReserved__::SdfBatchNamespaceEdit", %"class.std::vector.7", %"class.std::vector.12", %"class.std::vector.17", %"class.std::vector", %"class.pxrInternal_v0_24__pxrReserved__::SdfPath", i8, [7 x i8] }>
%"class.pxrInternal_v0_24__pxrReserved__::SdfBatchNamespaceEdit" = type { %"class.std::vector.2" }
%"class.std::vector.2" = type { %"struct.std::_Vector_base.3" }
%"struct.std::_Vector_base.3" = type { %"struct.std::_Vector_base<pxrInternal_v0_24__pxrReserved__::SdfNamespaceEdit, std::allocator<pxrInternal_v0_24__pxrReserved__::SdfNamespaceEdit>>::_Vector_impl" }
%"struct.std::_Vector_base<pxrInternal_v0_24__pxrReserved__::SdfNamespaceEdit, std::allocator<pxrInternal_v0_24__pxrReserved__::SdfNamespaceEdit>>::_Vector_impl" = type { %"struct.std::_Vector_base<pxrInternal_v0_24__pxrReserved__::SdfNamespaceEdit, std::allocator<pxrInternal_v0_24__pxrReserved__::SdfNamespaceEdit>>::_Vector_impl_data" }
%"struct.std::_Vector_base<pxrInternal_v0_24__pxrReserved__::SdfNamespaceEdit, std::allocator<pxrInternal_v0_24__pxrReserved__::SdfNamespaceEdit>>::_Vector_impl_data" = type { ptr, ptr, ptr }
%"class.std::vector.7" = type { %"struct.std::_Vector_base.8" }
%"struct.std::_Vector_base.8" = type { %"struct.std::_Vector_base<pxrInternal_v0_24__pxrReserved__::TfWeakPtr<pxrInternal_v0_24__pxrReserved__::SdfLayer>, std::allocator<pxrInternal_v0_24__pxrReserved__::TfWeakPtr<pxrInternal_v0_24__pxrReserved__::SdfLayer>>>::_Vector_impl" }
%"struct.std::_Vector_base<pxrInternal_v0_24__pxrReserved__::TfWeakPtr<pxrInternal_v0_24__pxrReserved__::SdfLayer>, std::allocator<pxrInternal_v0_24__pxrReserved__::TfWeakPtr<pxrInternal_v0_24__pxrReserved__::SdfLayer>>>::_Vector_impl" = type { %"struct.std::_Vector_base<pxrInternal_v0_24__pxrReserved__::TfWeakPtr<pxrInternal_v0_24__pxrReserved__::SdfLayer>, std::allocator<pxrInternal_v0_24__pxrReserved__::TfWeakPtr<pxrInternal_v0_24__pxrReserved__::SdfLayer>>>::_Vector_impl_data" }
%"struct.std::_Vector_base<pxrInternal_v0_24__pxrReserved__::TfWeakPtr<pxrInternal_v0_24__pxrReserved__::SdfLayer>, std::allocator<pxrInternal_v0_24__pxrReserved__::TfWeakPtr<pxrInternal_v0_24__pxrReserved__::SdfLayer>>>::_Vector_impl_data" = type { ptr, ptr, ptr }
%"class.std::vector.12" = type { %"struct.std::_Vector_base.13" }
%"struct.std::_Vector_base.13" = type { %"struct.std::_Vector_base<std::pair<pxrInternal_v0_24__pxrReserved__::TfWeakPtr<pxrInternal_v0_24__pxrReserved__::SdfLayer>, std::vector<std::pair<pxrInternal_v0_24__pxrReserved__::SdfPath, pxrInternal_v0_24__pxrReserved__::SdfPath>>>, std::allocator<std::pair<pxrInternal_v0_24__pxrReserved__::TfWeakPtr<pxrInternal_v0_24__pxrReserved__::SdfLayer>, std::vector<std::pair<pxrInternal_v0_24__pxrReserved__::SdfPath, pxrInternal_v0_24__pxrReserved__::SdfPath>>>>>::_Vector_impl" }
%"struct.std::_Vector_base<std::pair<pxrInternal_v0_24__pxrReserved__::TfWeakPtr<pxrInternal_v0_24__pxrReserved__::SdfLayer>, std::vector<std::pair<pxrInternal_v0_24__pxrReserved__::SdfPath, pxrInternal_v0_24__pxrReserved__::SdfPath>>>, std::allocator<std::pair<pxrInternal_v0_24__pxrReserved__::TfWeakPtr<pxrInternal_v0_24__pxrReserved__::SdfLayer>, std::vector<std::pair<pxrInternal_v0_24__pxrReserved__::SdfPath, pxrInternal_v0_24__pxrReserved__::SdfPath>>>>>::_Vector_impl" = type { %"struct.std::_Vector_base<std::pair<pxrInternal_v0_24__pxrReserved__::TfWeakPtr<pxrInternal_v0_24__pxrReserved__::SdfLayer>, std::vector<std::pair<pxrInternal_v0_24__pxrReserved__::SdfPath, pxrInternal_v0_24__pxrReserved__::SdfPath>>>, std::allocator<std::pair<pxrInternal_v0_24__pxrReserved__::TfWeakPtr<pxrInternal_v0_24__pxrReserved__::SdfLayer>, std::vector<std::pair<pxrInternal_v0_24__pxrReserved__::SdfPath, pxrInternal_v0_24__pxrReserved__::SdfPath>>>>>::_Vector_impl_data" }
%"struct.std::_Vector_base<std::pair<pxrInternal_v0_24__pxrReserved__::TfWeakPtr<pxrInternal_v0_24__pxrReserved__::SdfLayer>, std::vector<std::pair<pxrInternal_v0_24__pxrReserved__::SdfPath, pxrInternal_v0_24__pxrReserved__::SdfPath>>>, std::allocator<std::pair<pxrInternal_v0_24__pxrReserved__::TfWeakPtr<pxrInternal_v0_24__pxrReserved__::SdfLayer>, std::vector<std::pair<pxrInternal_v0_24__pxrReserved__::SdfPath, pxrInternal_v0_24__pxrReserved__::SdfPath>>>>>::_Vector_impl_data" = type { ptr, ptr, ptr }
%"class.std::vector.17" = type { %"struct.std::_Vector_base.18" }
%"struct.std::_Vector_base.18" = type { %"struct.std::_Vector_base<pxrInternal_v0_24__pxrReserved__::UsdNamespaceEditor::_ProcessedEdit::TargetPathListOpEdit, std::allocator<pxrInternal_v0_24__pxrReserved__::UsdNamespaceEditor::_ProcessedEdit::TargetPathListOpEdit>>::_Vector_impl" }
%"struct.std::_Vector_base<pxrInternal_v0_24__pxrReserved__::UsdNamespaceEditor::_ProcessedEdit::TargetPathListOpEdit, std::allocator<pxrInternal_v0_24__pxrReserved__::UsdNamespaceEditor::_ProcessedEdit::TargetPathListOpEdit>>::_Vector_impl" = type { %"struct.std::_Vector_base<pxrInternal_v0_24__pxrReserved__::UsdNamespaceEditor::_ProcessedEdit::TargetPathListOpEdit, std::allocator<pxrInternal_v0_24__pxrReserved__::UsdNamespaceEditor::_ProcessedEdit::TargetPathListOpEdit>>::_Vector_impl_data" }
%"struct.std::_Vector_base<pxrInternal_v0_24__pxrReserved__::UsdNamespaceEditor::_ProcessedEdit::TargetPathListOpEdit, std::allocator<pxrInternal_v0_24__pxrReserved__::UsdNamespaceEditor::_ProcessedEdit::TargetPathListOpEdit>>::_Vector_impl_data" = type { ptr, ptr, ptr }
%"class.std::vector" = type { %"struct.std::_Vector_base" }
%"struct.std::_Vector_base" = type { %"struct.std::_Vector_base<std::__cxx11::basic_string<char>, std::allocator<std::__cxx11::basic_string<char>>>::_Vector_impl" }
%"struct.std::_Vector_base<std::__cxx11::basic_string<char>, std::allocator<std::__cxx11::basic_string<char>>>::_Vector_impl" = type { %"struct.std::_Vector_base<std::__cxx11::basic_string<char>, std::allocator<std::__cxx11::basic_string<char>>>::_Vector_impl_data" }
%"struct.std::_Vector_base<std::__cxx11::basic_string<char>, std::allocator<std::__cxx11::basic_string<char>>>::_Vector_impl_data" = type { ptr, ptr, ptr }
%"class.std::__cxx11::basic_string" = type { %"struct.std::__cxx11::basic_string<char>::_Alloc_hider", i64, %union.anon.110 }
%"struct.std::__cxx11::basic_string<char>::_Alloc_hider" = type { ptr }
%union.anon.110 = type { i64, [8 x i8] }
%"class.__gnu_cxx::__normal_iterator.508" = type { ptr }

@.str.55 = private unnamed_addr constant [3 x i8] c"; \00", align 1

; Function Attrs: mustprogress nounwind uwtable
define linkonce_odr noundef nonnull align 8 dereferenceable(8) ptr @_ZNK9__gnu_cxx17__normal_iteratorIPKNSt7__cxx1112basic_stringIcSt11char_traitsIcESaIcEEESt6vectorIS6_SaIS6_EEE4baseEv(ptr noundef nonnull align 8 dereferenceable(8) %0) #1 comdat align 2 {
  %2 = alloca ptr, align 8
  store ptr %0, ptr %2, align 8
  %3 = load ptr, ptr %2, align 8
  %4 = getelementptr inbounds nuw %"class.__gnu_cxx::__normal_iterator.508", ptr %3, i32 0, i32 0
  ret ptr %4
}

; Function Attrs: mustprogress nounwind uwtable
define linkonce_odr void @_ZN9__gnu_cxx17__normal_iteratorIPKNSt7__cxx1112basic_stringIcSt11char_traitsIcESaIcEEESt6vectorIS6_SaIS6_EEEC2ERKS8_(ptr noundef nonnull align 8 dereferenceable(8) %0, ptr noundef nonnull align 8 dereferenceable(8) %1) unnamed_addr #1 comdat align 2 {
  %3 = alloca ptr, align 8
  %4 = alloca ptr, align 8
  store ptr %0, ptr %3, align 8
  store ptr %1, ptr %4, align 8
  %5 = load ptr, ptr %3, align 8
  %6 = getelementptr inbounds nuw %"class.__gnu_cxx::__normal_iterator.508", ptr %5, i32 0, i32 0
  %7 = load ptr, ptr %4, align 8
  %8 = load ptr, ptr %7, align 8
  store ptr %8, ptr %6, align 8
  ret void
}

; Function Attrs: mustprogress nounwind uwtable
define linkonce_odr noundef zeroext i1 @_ZN9__gnu_cxxeqIPKNSt7__cxx1112basic_stringIcSt11char_traitsIcESaIcEEESt6vectorIS6_SaIS6_EEEEbRKNS_17__normal_iteratorIT_T0_EESH_(ptr noundef nonnull align 8 dereferenceable(8) %0, ptr noundef nonnull align 8 dereferenceable(8) %1) #1 comdat {
  %3 = alloca ptr, align 8
  %4 = alloca ptr, align 8
  store ptr %0, ptr %3, align 8
  store ptr %1, ptr %4, align 8
  %5 = load ptr, ptr %3, align 8
  %6 = call noundef nonnull align 8 dereferenceable(8) ptr @_ZNK9__gnu_cxx17__normal_iteratorIPKNSt7__cxx1112basic_stringIcSt11char_traitsIcESaIcEEESt6vectorIS6_SaIS6_EEE4baseEv(ptr noundef nonnull align 8 dereferenceable(8) %5) #11
  %7 = load ptr, ptr %6, align 8
  %8 = load ptr, ptr %4, align 8
  %9 = call noundef nonnull align 8 dereferenceable(8) ptr @_ZNK9__gnu_cxx17__normal_iteratorIPKNSt7__cxx1112basic_stringIcSt11char_traitsIcESaIcEEESt6vectorIS6_SaIS6_EEE4baseEv(ptr noundef nonnull align 8 dereferenceable(8) %8) #11
  %10 = load ptr, ptr %9, align 8
  %11 = icmp eq ptr %7, %10
  ret i1 %11
}

; Function Attrs: mustprogress nounwind uwtable
define linkonce_odr ptr @_ZNKSt6vectorINSt7__cxx1112basic_stringIcSt11char_traitsIcESaIcEEESaIS5_EE3endEv(ptr noundef nonnull align 8 dereferenceable(24) %0) #1 comdat align 2 {
  %2 = alloca %"class.__gnu_cxx::__normal_iterator.508", align 8
  %3 = alloca ptr, align 8
  store ptr %0, ptr %3, align 8
  %4 = load ptr, ptr %3, align 8
  %5 = getelementptr inbounds nuw %"struct.std::_Vector_base", ptr %4, i32 0, i32 0
  %6 = getelementptr inbounds nuw %"struct.std::_Vector_base<std::__cxx11::basic_string<char>, std::allocator<std::__cxx11::basic_string<char>>>::_Vector_impl_data", ptr %5, i32 0, i32 1
  call void @_ZN9__gnu_cxx17__normal_iteratorIPKNSt7__cxx1112basic_stringIcSt11char_traitsIcESaIcEEESt6vectorIS6_SaIS6_EEEC2ERKS8_(ptr noundef nonnull align 8 dereferenceable(8) %2, ptr noundef nonnull align 8 dereferenceable(8) %6) #11
  %7 = getelementptr inbounds nuw %"class.__gnu_cxx::__normal_iterator.508", ptr %2, i32 0, i32 0
  %8 = load ptr, ptr %7, align 8
  ret ptr %8
}

; Function Attrs: mustprogress nounwind uwtable
define linkonce_odr ptr @_ZNKSt6vectorINSt7__cxx1112basic_stringIcSt11char_traitsIcESaIcEEESaIS5_EE5beginEv(ptr noundef nonnull align 8 dereferenceable(24) %0) #1 comdat align 2 {
  %2 = alloca %"class.__gnu_cxx::__normal_iterator.508", align 8
  %3 = alloca ptr, align 8
  store ptr %0, ptr %3, align 8
  %4 = load ptr, ptr %3, align 8
  %5 = getelementptr inbounds nuw %"struct.std::_Vector_base", ptr %4, i32 0, i32 0
  %6 = getelementptr inbounds nuw %"struct.std::_Vector_base<std::__cxx11::basic_string<char>, std::allocator<std::__cxx11::basic_string<char>>>::_Vector_impl_data", ptr %5, i32 0, i32 0
  call void @_ZN9__gnu_cxx17__normal_iteratorIPKNSt7__cxx1112basic_stringIcSt11char_traitsIcESaIcEEESt6vectorIS6_SaIS6_EEEC2ERKS8_(ptr noundef nonnull align 8 dereferenceable(8) %2, ptr noundef nonnull align 8 dereferenceable(8) %6) #11
  %7 = getelementptr inbounds nuw %"class.__gnu_cxx::__normal_iterator.508", ptr %2, i32 0, i32 0
  %8 = load ptr, ptr %7, align 8
  ret ptr %8
}

; Function Attrs: mustprogress uwtable
define internal void @_ZN32pxrInternal_v0_24__pxrReserved__L15_GetErrorStringERKSt6vectorINSt7__cxx1112basic_stringIcSt11char_traitsIcESaIcEEESaIS6_EE(ptr dead_on_unwind noalias writable sret(%"class.std::__cxx11::basic_string") align 8 %0, ptr noundef nonnull align 8 dereferenceable(24) %1) #0 {
  %3 = alloca ptr, align 8
  %4 = alloca ptr, align 8
  store ptr %0, ptr %3, align 8
  store ptr %1, ptr %4, align 8
  %5 = load ptr, ptr %4, align 8
  call void @_ZN32pxrInternal_v0_24__pxrReserved__12TfStringJoinERKSt6vectorINSt7__cxx1112basic_stringIcSt11char_traitsIcESaIcEEESaIS6_EEPKc(ptr dead_on_unwind writable sret(%"class.std::__cxx11::basic_string") align 8 %0, ptr noundef nonnull align 8 dereferenceable(24) %5, ptr noundef @.str.55)
  ret void
}

; Function Attrs: mustprogress nounwind uwtable
define linkonce_odr noundef zeroext i1 @_ZNKSt6vectorINSt7__cxx1112basic_stringIcSt11char_traitsIcESaIcEEESaIS5_EE5emptyEv(ptr noundef nonnull align 8 dereferenceable(24) %0) #1 comdat align 2 {
  %2 = alloca ptr, align 8
  %3 = alloca %"class.__gnu_cxx::__normal_iterator.508", align 8
  %4 = alloca %"class.__gnu_cxx::__normal_iterator.508", align 8
  store ptr %0, ptr %2, align 8
  %5 = load ptr, ptr %2, align 8
  %6 = call ptr @_ZNKSt6vectorINSt7__cxx1112basic_stringIcSt11char_traitsIcESaIcEEESaIS5_EE5beginEv(ptr noundef nonnull align 8 dereferenceable(24) %5) #11
  %7 = getelementptr inbounds nuw %"class.__gnu_cxx::__normal_iterator.508", ptr %3, i32 0, i32 0
  store ptr %6, ptr %7, align 8
  %8 = call ptr @_ZNKSt6vectorINSt7__cxx1112basic_stringIcSt11char_traitsIcESaIcEEESaIS5_EE3endEv(ptr noundef nonnull align 8 dereferenceable(24) %5) #11
  %9 = getelementptr inbounds nuw %"class.__gnu_cxx::__normal_iterator.508", ptr %4, i32 0, i32 0
  store ptr %8, ptr %9, align 8
  %10 = call noundef zeroext i1 @_ZN9__gnu_cxxeqIPKNSt7__cxx1112basic_stringIcSt11char_traitsIcESaIcEEESt6vectorIS6_SaIS6_EEEEbRKNS_17__normal_iteratorIT_T0_EESH_(ptr noundef nonnull align 8 dereferenceable(8) %3, ptr noundef nonnull align 8 dereferenceable(8) %4) #11
  ret i1 %10
}

; Function Attrs: mustprogress uwtable
define noundef zeroext i1 @_ZNK32pxrInternal_v0_24__pxrReserved__18UsdNamespaceEditor14_ProcessedEdit8CanApplyEPNSt7__cxx1112basic_stringIcSt11char_traitsIcESaIcEEE(ptr noundef nonnull align 8 dereferenceable(153) %0, ptr noundef %1) #0 align 2 {
  %3 = alloca i1, align 1
  %4 = alloca ptr, align 8
  %5 = alloca ptr, align 8
  %6 = alloca %"class.std::__cxx11::basic_string", align 8
  store ptr %0, ptr %4, align 8
  store ptr %1, ptr %5, align 8
  %7 = load ptr, ptr %4, align 8
  %8 = getelementptr inbounds nuw %"struct.pxrInternal_v0_24__pxrReserved__::UsdNamespaceEditor::_ProcessedEdit", ptr %7, i32 0, i32 0
  %9 = call noundef zeroext i1 @_ZNKSt6vectorINSt7__cxx1112basic_stringIcSt11char_traitsIcESaIcEEESaIS5_EE5emptyEv(ptr noundef nonnull align 8 dereferenceable(24) %8) #11
  br i1 %9, label %18, label %10

10:                                               ; preds = %2
  %11 = load ptr, ptr %5, align 8
  %12 = icmp ne ptr %11, null
  br i1 %12, label %13, label %17

13:                                               ; preds = %10
  %14 = getelementptr inbounds nuw %"struct.pxrInternal_v0_24__pxrReserved__::UsdNamespaceEditor::_ProcessedEdit", ptr %7, i32 0, i32 0
  call void @_ZN32pxrInternal_v0_24__pxrReserved__L15_GetErrorStringERKSt6vectorINSt7__cxx1112basic_stringIcSt11char_traitsIcESaIcEEESaIS6_EE(ptr dead_on_unwind writable sret(%"class.std::__cxx11::basic_string") align 8 %6, ptr noundef nonnull align 8 dereferenceable(24) %14)
  %15 = load ptr, ptr %5, align 8
  %16 = call noundef nonnull align 8 dereferenceable(32) ptr @_ZNSt7__cxx1112basic_stringIcSt11char_traitsIcESaIcEEaSEOS4_(ptr noundef nonnull align 8 dereferenceable(32) %15, ptr noundef nonnull align 8 dereferenceable(32) %6) #11
  call void @_ZNSt7__cxx1112basic_stringIcSt11char_traitsIcESaIcEED1Ev(ptr noundef nonnull align 8 dereferenceable(32) %6) #11
  br label %17

17:                                               ; preds = %13, %10
  store i1 false, ptr %3, align 1
  br label %19

18:                                               ; preds = %2
  store i1 true, ptr %3, align 1
  br label %19

19:                                               ; preds = %18, %17
  %20 = load i1, ptr %3, align 1
  ret i1 %20
}